target datalayout = "e-m:e-p270:32:32-p271:32:32-p272:64:64-i64:64-i128:128-f80:128-n8:16:32:64-S128"
target triple = "x86_64-pc-linux-gnu"

%struct.GetBitContext = type { ptr, ptr, i32, i32, i32 }

; Function Attrs: inlinehint nounwind willreturn memory(none) uwtable
define internal i32 @zero_extend(i32 noundef %0, i32 noundef %1) #5 {
  %3 = alloca i32, align 4
  %4 = alloca i32, align 4
  store i32 %0, ptr %3, align 4, !tbaa !34
  store i32 %1, ptr %4, align 4, !tbaa !34
  %5 = load i32, ptr %3, align 4, !tbaa !34
  %6 = load i32, ptr %4, align 4, !tbaa !34
  %7 = zext i32 %6 to i64
  %8 = sub i64 32, %7
  %9 = trunc i64 %8 to i32
  %10 = shl i32 %5, %9
  %11 = load i32, ptr %4, align 4, !tbaa !34
  %12 = zext i32 %11 to i64
  %13 = sub i64 32, %12
  %14 = trunc i64 %13 to i32
  %15 = lshr i32 %10, %14
  ret i32 %15
}

; Function Attrs: inlinehint nounwind uwtable
define internal i32 @get_bits(ptr noundef %0, i32 noundef %1) #4 {
  %3 = alloca ptr, align 8
  %4 = alloca i32, align 4
  %5 = alloca i32, align 4
  %6 = alloca i32, align 4
  %7 = alloca i32, align 4
  %8 = alloca i32, align 4
  store ptr %0, ptr %3, align 8, !tbaa !35
  store i32 %1, ptr %4, align 4, !tbaa !34
  call void @llvm.lifetime.start.p0(i64 4, ptr %5) #13
  call void @llvm.lifetime.start.p0(i64 4, ptr %6) #13
  %9 = load ptr, ptr %3, align 8, !tbaa !35
  %10 = getelementptr inbounds nuw %struct.GetBitContext, ptr %9, i32 0, i32 2
  %11 = load i32, ptr %10, align 8, !tbaa !89
  store i32 %11, ptr %6, align 4, !tbaa !34
  call void @llvm.lifetime.start.p0(i64 4, ptr %7) #13
  call void @llvm.lifetime.start.p0(i64 4, ptr %8) #13
  %12 = load ptr, ptr %3, align 8, !tbaa !35
  %13 = getelementptr inbounds nuw %struct.GetBitContext, ptr %12, i32 0, i32 4
  %14 = load i32, ptr %13, align 8, !tbaa !87
  store i32 %14, ptr %8, align 4, !tbaa !34
  %15 = load ptr, ptr %3, align 8, !tbaa !35
  %16 = getelementptr inbounds nuw %struct.GetBitContext, ptr %15, i32 0, i32 0
  %17 = load ptr, ptr %16, align 8, !tbaa !85
  %18 = load i32, ptr %6, align 4, !tbaa !34
  %19 = lshr i32 %18, 3
  %20 = zext i32 %19 to i64
  %21 = getelementptr inbounds nuw i8, ptr %17, i64 %20
  %22 = load i32, ptr %21, align 1, !tbaa !63
  %23 = load i32, ptr %6, align 4, !tbaa !34
  %24 = and i32 %23, 7
  %25 = lshr i32 %22, %24
  store i32 %25, ptr %7, align 4, !tbaa !34
  %26 = load i32, ptr %7, align 4, !tbaa !34
  %27 = load i32, ptr %4, align 4, !tbaa !34
  %28 = call i32 @zero_extend(i32 noundef %26, i32 noundef %27) #14
  store i32 %28, ptr %5, align 4, !tbaa !34
  %29 = load i32, ptr %8, align 4, !tbaa !34
  %30 = load i32, ptr %6, align 4, !tbaa !34
  %31 = load i32, ptr %4, align 4, !tbaa !34
  %32 = add i32 %30, %31
  %33 = icmp ugt i32 %29, %32
  br i1 %33, label %34, label %38

34:                                               ; preds = %2
  %35 = load i32, ptr %6, align 4, !tbaa !34
  %36 = load i32, ptr %4, align 4, !tbaa !34
  %37 = add i32 %35, %36
  br label %40

38:                                               ; preds = %2
  %39 = load i32, ptr %8, align 4, !tbaa !34
  br label %40

40:                                               ; preds = %38, %34
  %41 = phi i32 [ %37, %34 ], [ %39, %38 ]
  store i32 %41, ptr %6, align 4, !tbaa !34
  %42 = load i32, ptr %6, align 4, !tbaa !34
  %43 = load ptr, ptr %3, align 8, !tbaa !35
  %44 = getelementptr inbounds nuw %struct.GetBitContext, ptr %43, i32 0, i32 2
  store i32 %42, ptr %44, align 8, !tbaa !89
  %45 = load i32, ptr %5, align 4, !tbaa !34
  call void @llvm.lifetime.end.p0(i64 4, ptr %8) #13
  call void @llvm.lifetime.end.p0(i64 4, ptr %7) #13
  call void @llvm.lifetime.end.p0(i64 4, ptr %6) #13
  call void @llvm.lifetime.end.p0(i64 4, ptr %5) #13
  ret i32 %45
}

; Function Attrs: inlinehint nounwind uwtable
define internal i32 @get_bits_long(ptr noundef %0, i32 noundef %1) #4 {
  %3 = alloca i32, align 4
  %4 = alloca ptr, align 8
  %5 = alloca i32, align 4
  %6 = alloca i32, align 4
  store ptr %0, ptr %4, align 8, !tbaa !35
  store i32 %1, ptr %5, align 4, !tbaa !34
  %7 = load i32, ptr %5, align 4, !tbaa !34
  %8 = icmp ne i32 %7, 0
  br i1 %8, label %10, label %9

9:                                                ; preds = %2
  store i32 0, ptr %3, align 4
  br label %27

10:                                               ; preds = %2
  %11 = load i32, ptr %5, align 4, !tbaa !34
  %12 = icmp sle i32 %11, 25
  br i1 %12, label %13, label %17

13:                                               ; preds = %10
  %14 = load ptr, ptr %4, align 8, !tbaa !35
  %15 = load i32, ptr %5, align 4, !tbaa !34
  %16 = call i32 @get_bits(ptr noundef %14, i32 noundef %15)
  store i32 %16, ptr %3, align 4
  br label %27

17:                                               ; preds = %10
  call void @llvm.lifetime.start.p0(i64 4, ptr %6) #13
  %18 = load ptr, ptr %4, align 8, !tbaa !35
  %19 = call i32 @get_bits(ptr noundef %18, i32 noundef 16)
  store i32 %19, ptr %6, align 4, !tbaa !34
  %20 = load i32, ptr %6, align 4, !tbaa !34
  %21 = load ptr, ptr %4, align 8, !tbaa !35
  %22 = load i32, ptr %5, align 4, !tbaa !34
  %23 = sub nsw i32 %22, 16
  %24 = call i32 @get_bits(ptr noundef %21, i32 noundef %23)
  %25 = shl i32 %24, 16
  %26 = or i32 %20, %25
  store i32 %26, ptr %3, align 4
  call void @llvm.lifetime.end.p0(i64 4, ptr %6) #13
  br label %27

27:                                               ; preds = %17, %13, %9
  %28 = load i32, ptr %3, align 4
  ret i32 %28
}