; Function Attrs: inlinehint mustprogress nofree norecurse nosync nounwind willreturn memory(read, argmem: readwrite, inaccessiblemem: none) uwtable
define internal fastcc i32 @get_bits_long(ptr noundef captures(none) %0, i32 noundef range(i32 1, 224) %1) unnamed_addr #5 {
  %3 = icmp samesign ult i32 %1, 26
  %4 = getelementptr inbounds nuw i8, ptr %0, i64 16
  %5 = load i32, ptr %4, align 8, !tbaa !49
  %6 = getelementptr inbounds nuw i8, ptr %0, i64 24
  %7 = load i32, ptr %6, align 8, !tbaa !47
  %8 = load ptr, ptr %0, align 8, !tbaa !45
  %9 = lshr i32 %5, 3
  %10 = zext nneg i32 %9 to i64
  %11 = getelementptr inbounds nuw i8, ptr %8, i64 %10
  %12 = load i32, ptr %11, align 1, !tbaa !50
  %13 = and i32 %5, 7
  %14 = lshr i32 %12, %13
  br i1 %3, label %15, label %21

15:                                               ; preds = %2
  %16 = sub nuw nsw i32 32, %1
  %17 = lshr i32 -1, %16
  %18 = and i32 %14, %17
  %19 = add i32 %5, %1
  %20 = tail call i32 @llvm.umin.i32(i32 %7, i32 %19)
  store i32 %20, ptr %4, align 8, !tbaa !49
  br label %39

21:                                               ; preds = %2
  %22 = and i32 %14, 65535
  %23 = add i32 %5, 16
  %24 = tail call i32 @llvm.umin.i32(i32 %7, i32 %23)
  store i32 %24, ptr %4, align 8, !tbaa !49
  %25 = add nsw i32 %1, -16
  %26 = lshr i32 %24, 3
  %27 = zext nneg i32 %26 to i64
  %28 = getelementptr inbounds nuw i8, ptr %8, i64 %27
  %29 = load i32, ptr %28, align 1, !tbaa !50
  %30 = and i32 %24, 7
  %31 = lshr i32 %29, %30
  %32 = sub nsw i32 48, %1
  %33 = lshr i32 -1, %32
  %34 = and i32 %31, %33
  %35 = add i32 %25, %24
  %36 = tail call i32 @llvm.umin.i32(i32 %7, i32 %35)
  store i32 %36, ptr %4, align 8, !tbaa !49
  %37 = shl i32 %34, 16
  %38 = or disjoint i32 %37, %22
  br label %39

39:                                               ; preds = %21, %15
  %.0 = phi i32 [ %18, %15 ], [ %38, %21 ]
  ret i32 %.0
}